; Function Attrs: mustprogress nofree norecurse nosync nounwind memory(readwrite, inaccessiblemem: none) uwtable
define hidden void @_ZN11OpenImageIO6v3_1_05CSHA16UpdateEPKhj(ptr noundef nonnull align 8 captures(none) dereferenceable(200) %0, ptr noundef readonly captures(none) %1, i32 noundef %2) local_unnamed_addr #9 align 2 {
._crit_edge:
  %3 = getelementptr inbounds nuw i8, ptr %0, i64 20
  %4 = load i32, ptr %3, align 4, !tbaa !8
  %5 = lshr i32 %4, 3
  %6 = and i32 %5, 63
  %7 = shl i32 %2, 3
  %8 = add i32 %4, %7
  store i32 %8, ptr %3, align 4, !tbaa !8
  %9 = icmp ult i32 %8, %7
  %10 = getelementptr inbounds nuw i8, ptr %0, i64 24
  %11 = load i32, ptr %10, align 8, !tbaa !8
  %12 = zext i1 %9 to i32
  %13 = add i32 %11, %12
  %14 = lshr i32 %2, 29
  %15 = getelementptr inbounds nuw i8, ptr %0, i64 24
  %16 = add i32 %13, %14
  store i32 %16, ptr %15, align 8, !tbaa !8
  %17 = add i32 %6, %2
  %18 = icmp ugt i32 %17, 63
  br i1 %18, label %19, label %32

19:                                               ; preds = %._crit_edge
  %20 = sub nuw nsw i32 64, %6
  %21 = getelementptr inbounds nuw i8, ptr %0, i64 32
  %22 = zext nneg i32 %6 to i64
  %23 = getelementptr inbounds nuw [64 x i8], ptr %21, i64 0, i64 %22
  %24 = zext nneg i32 %20 to i64
  tail call void @llvm.memcpy.p0.p0.i64(ptr noundef nonnull align 1 dereferenceable(1) %23, ptr noundef nonnull align 1 dereferenceable(1) %1, i64 %24, i1 false)
  tail call void @_ZN11OpenImageIO6v3_1_05CSHA19TransformEPjPKh(ptr noundef nonnull align 8 dereferenceable(200) %0, ptr noundef nonnull %0, ptr noundef nonnull %21)
  %25 = xor i32 %6, 127
  %26 = icmp ult i32 %25, %2
  br i1 %26, label %.lr.ph, label %.loopexit

.lr.ph:                                           ; preds = %19, %.lr.ph
  %.023 = phi i32 [ %29, %.lr.ph ], [ %20, %19 ]
  %27 = zext i32 %.023 to i64
  %28 = getelementptr inbounds nuw i8, ptr %1, i64 %27
  tail call void @_ZN11OpenImageIO6v3_1_05CSHA19TransformEPjPKh(ptr noundef nonnull align 8 dereferenceable(200) %0, ptr noundef nonnull %0, ptr noundef nonnull %28)
  %29 = add i32 %.023, 64
  %30 = add i32 %.023, 127
  %31 = icmp ult i32 %30, %2
  br i1 %31, label %.lr.ph, label %.loopexit, !llvm.loop !20

32:                                               ; preds = %._crit_edge
  %33 = zext nneg i32 %6 to i64
  br label %.loopexit

.loopexit:                                        ; preds = %.lr.ph, %19, %32
  %.021 = phi i64 [ %33, %32 ], [ 0, %19 ], [ 0, %.lr.ph ]
  %.1 = phi i32 [ 0, %32 ], [ %20, %19 ], [ %29, %.lr.ph ]
  %.not = icmp eq i32 %2, %.1
  br i1 %.not, label %41, label %34

34:                                               ; preds = %.loopexit
  %35 = sub i32 %2, %.1
  %36 = getelementptr inbounds nuw i8, ptr %0, i64 32
  %37 = getelementptr inbounds nuw [64 x i8], ptr %36, i64 0, i64 %.021
  %38 = zext i32 %.1 to i64
  %39 = getelementptr inbounds nuw i8, ptr %1, i64 %38
  %40 = zext i32 %35 to i64
  tail call void @llvm.memcpy.p0.p0.i64(ptr nonnull align 1 %37, ptr align 1 %39, i64 %40, i1 false)
  br label %41

41:                                               ; preds = %34, %.loopexit
  ret void
}